target datalayout = "e-m:e-p270:32:32-p271:32:32-p272:64:64-i64:64-i128:128-f80:128-n8:16:32:64-S128"
target triple = "x86_64-unknown-linux-gnu"

%"class.icu_75::UObject" = type { ptr }
%"class.icu_75::UnicodeString" = type { %"class.icu_75::Replaceable", %"union.icu_75::UnicodeString::StackBufferOrFields" }
%"class.icu_75::Replaceable" = type { %"class.icu_75::UObject" }
%"union.icu_75::UnicodeString::StackBufferOrFields" = type { %struct.anon.0, [32 x i8] }
%struct.anon.0 = type { i16, i32, i32, ptr }
%struct.anon = type { i16, [27 x i16] }

; Function Attrs: mustprogress nounwind uwtable
define linkonce_odr noundef ptr @_ZNK6icu_7513UnicodeString13getArrayStartEv(ptr noundef nonnull align 8 dereferenceable(64) %this) #0 comdat align 2 {
entry:
  %this.addr = alloca ptr, align 8
  store ptr %this, ptr %this.addr, align 8
  %this1 = load ptr, ptr %this.addr, align 8
  %fUnion = getelementptr inbounds %"class.icu_75::UnicodeString", ptr %this1, i32 0, i32 1
  %fLengthAndFlags = getelementptr inbounds %struct.anon.0, ptr %fUnion, i32 0, i32 0
  %0 = load i16, ptr %fLengthAndFlags, align 8
  %conv = sext i16 %0 to i32
  %and = and i32 %conv, 2
  %tobool = icmp ne i32 %and, 0
  br i1 %tobool, label %cond.true, label %cond.false

cond.true:                                        ; preds = %entry
  %fUnion2 = getelementptr inbounds %"class.icu_75::UnicodeString", ptr %this1, i32 0, i32 1
  %fBuffer = getelementptr inbounds %struct.anon, ptr %fUnion2, i32 0, i32 1
  %arraydecay = getelementptr inbounds [27 x i16], ptr %fBuffer, i64 0, i64 0
  br label %cond.end

cond.false:                                       ; preds = %entry
  %fUnion3 = getelementptr inbounds %"class.icu_75::UnicodeString", ptr %this1, i32 0, i32 1
  %fArray = getelementptr inbounds %struct.anon.0, ptr %fUnion3, i32 0, i32 3
  %1 = load ptr, ptr %fArray, align 8
  br label %cond.end

cond.end:                                         ; preds = %cond.false, %cond.true
  %cond = phi ptr [ %arraydecay, %cond.true ], [ %1, %cond.false ]
  ret ptr %cond
}

; Function Attrs: mustprogress uwtable
define linkonce_odr noundef zeroext i16 @_ZNK6icu_7513UnicodeString8doCharAtEi(ptr noundef nonnull align 8 dereferenceable(64) %this, i32 noundef %offset) #1 comdat align 2 {
entry:
  %retval = alloca i16, align 2
  %this.addr = alloca ptr, align 8
  %offset.addr = alloca i32, align 4
  store ptr %this, ptr %this.addr, align 8
  store i32 %offset, ptr %offset.addr, align 4
  %this1 = load ptr, ptr %this.addr, align 8
  %0 = load i32, ptr %offset.addr, align 4
  %call = call noundef i32 @_ZNK6icu_7513UnicodeString6lengthEv(ptr noundef nonnull align 8 dereferenceable(64) %this1)
  %cmp = icmp ult i32 %0, %call
  br i1 %cmp, label %if.then, label %if.else

if.then:                                          ; preds = %entry
  %call2 = call noundef ptr @_ZNK6icu_7513UnicodeString13getArrayStartEv(ptr noundef nonnull align 8 dereferenceable(64) %this1)
  %1 = load i32, ptr %offset.addr, align 4
  %idxprom = sext i32 %1 to i64
  %arrayidx = getelementptr inbounds i16, ptr %call2, i64 %idxprom
  %2 = load i16, ptr %arrayidx, align 2
  store i16 %2, ptr %retval, align 2
  br label %return

if.else:                                          ; preds = %entry
  store i16 -1, ptr %retval, align 2
  br label %return

return:                                           ; preds = %if.else, %if.then
  %3 = load i16, ptr %retval, align 2
  ret i16 %3
}

; Function Attrs: mustprogress nounwind uwtable
define linkonce_odr noundef i32 @_ZNK6icu_7513UnicodeString14getShortLengthEv(ptr noundef nonnull align 8 dereferenceable(64) %this) #0 comdat align 2 {
entry:
  %this.addr = alloca ptr, align 8
  store ptr %this, ptr %this.addr, align 8
  %this1 = load ptr, ptr %this.addr, align 8
  %fUnion = getelementptr inbounds %"class.icu_75::UnicodeString", ptr %this1, i32 0, i32 1
  %fLengthAndFlags = getelementptr inbounds %struct.anon.0, ptr %fUnion, i32 0, i32 0
  %0 = load i16, ptr %fLengthAndFlags, align 8
  %conv = sext i16 %0 to i32
  %shr = ashr i32 %conv, 5
  ret i32 %shr
}

; Function Attrs: mustprogress nounwind uwtable
define linkonce_odr noundef signext i8 @_ZNK6icu_7513UnicodeString14hasShortLengthEv(ptr noundef nonnull align 8 dereferenceable(64) %this) #0 comdat align 2 {
entry:
  %this.addr = alloca ptr, align 8
  store ptr %this, ptr %this.addr, align 8
  %this1 = load ptr, ptr %this.addr, align 8
  %fUnion = getelementptr inbounds %"class.icu_75::UnicodeString", ptr %this1, i32 0, i32 1
  %fLengthAndFlags = getelementptr inbounds %struct.anon.0, ptr %fUnion, i32 0, i32 0
  %0 = load i16, ptr %fLengthAndFlags, align 8
  %conv = sext i16 %0 to i32
  %cmp = icmp sge i32 %conv, 0
  %conv2 = zext i1 %cmp to i8
  ret i8 %conv2
}

; Function Attrs: mustprogress uwtable
define linkonce_odr noundef zeroext i16 @_ZNK6icu_7513UnicodeString6charAtEi(ptr noundef nonnull align 8 dereferenceable(64) %this, i32 noundef %offset) #1 comdat align 2 {
entry:
  %this.addr = alloca ptr, align 8
  %offset.addr = alloca i32, align 4
  store ptr %this, ptr %this.addr, align 8
  store i32 %offset, ptr %offset.addr, align 4
  %this1 = load ptr, ptr %this.addr, align 8
  %0 = load i32, ptr %offset.addr, align 4
  %call = call noundef zeroext i16 @_ZNK6icu_7513UnicodeString8doCharAtEi(ptr noundef nonnull align 8 dereferenceable(64) %this1, i32 noundef %0)
  ret i16 %call
}

; Function Attrs: mustprogress uwtable
define linkonce_odr noundef zeroext i16 @_ZNK6icu_7511Replaceable6charAtEi(ptr noundef nonnull align 8 dereferenceable(8) %this, i32 noundef %offset) #1 comdat align 2 {
entry:
  %this.addr = alloca ptr, align 8
  %offset.addr = alloca i32, align 4
  store ptr %this, ptr %this.addr, align 8
  store i32 %offset, ptr %offset.addr, align 4
  %this1 = load ptr, ptr %this.addr, align 8
  %0 = load i32, ptr %offset.addr, align 4
  %vtable = load ptr, ptr %this1, align 8
  %vfn = getelementptr inbounds ptr, ptr %vtable, i64 9
  %1 = load ptr, ptr %vfn, align 8
  %call = call noundef zeroext i16 %1(ptr noundef nonnull align 8 dereferenceable(8) %this1, i32 noundef %0)
  ret i16 %call
}

; Function Attrs: mustprogress uwtable
define linkonce_odr noundef i32 @_ZNK6icu_7513UnicodeString6lengthEv(ptr noundef nonnull align 8 dereferenceable(64) %this) #1 comdat align 2 {
entry:
  %this.addr = alloca ptr, align 8
  store ptr %this, ptr %this.addr, align 8
  %this1 = load ptr, ptr %this.addr, align 8
  %call = call noundef signext i8 @_ZNK6icu_7513UnicodeString14hasShortLengthEv(ptr noundef nonnull align 8 dereferenceable(64) %this1)
  %tobool = icmp ne i8 %call, 0
  br i1 %tobool, label %cond.true, label %cond.false

cond.true:                                        ; preds = %entry
  %call2 = call noundef i32 @_ZNK6icu_7513UnicodeString14getShortLengthEv(ptr noundef nonnull align 8 dereferenceable(64) %this1)
  br label %cond.end

cond.false:                                       ; preds = %entry
  %fUnion = getelementptr inbounds %"class.icu_75::UnicodeString", ptr %this1, i32 0, i32 1
  %fLength = getelementptr inbounds %struct.anon.0, ptr %fUnion, i32 0, i32 1
  %0 = load i32, ptr %fLength, align 4
  br label %cond.end

cond.end:                                         ; preds = %cond.false, %cond.true
  %cond = phi i32 [ %call2, %cond.true ], [ %0, %cond.false ]
  ret i32 %cond
}

; Function Attrs: mustprogress uwtable
define noundef i32 @_ZN6icu_7510UnicodeSet9matchRestERKNS_11ReplaceableEiiRKNS_13UnicodeStringE(ptr noundef nonnull align 8 dereferenceable(8) %text, i32 noundef %start, i32 noundef %limit, ptr noundef nonnull align 8 dereferenceable(64) %s) #1 align 2 {
entry:
  %retval = alloca i32, align 4
  %text.addr = alloca ptr, align 8
  %start.addr = alloca i32, align 4
  %limit.addr = alloca i32, align 4
  %s.addr = alloca ptr, align 8
  %i = alloca i32, align 4
  %maxLen = alloca i32, align 4
  %slen = alloca i32, align 4
  store ptr %text, ptr %text.addr, align 8
  store i32 %start, ptr %start.addr, align 4
  store i32 %limit, ptr %limit.addr, align 4
  store ptr %s, ptr %s.addr, align 8
  %0 = load ptr, ptr %s.addr, align 8
  %call = call noundef i32 @_ZNK6icu_7513UnicodeString6lengthEv(ptr noundef nonnull align 8 dereferenceable(64) %0)
  store i32 %call, ptr %slen, align 4
  %1 = load i32, ptr %start.addr, align 4
  %2 = load i32, ptr %limit.addr, align 4
  %cmp = icmp slt i32 %1, %2
  br i1 %cmp, label %if.then, label %if.else

if.then:                                          ; preds = %entry
  %3 = load i32, ptr %limit.addr, align 4
  %4 = load i32, ptr %start.addr, align 4
  %sub = sub nsw i32 %3, %4
  store i32 %sub, ptr %maxLen, align 4
  %5 = load i32, ptr %maxLen, align 4
  %6 = load i32, ptr %slen, align 4
  %cmp1 = icmp sgt i32 %5, %6
  br i1 %cmp1, label %if.then2, label %if.end

if.then2:                                         ; preds = %if.then
  %7 = load i32, ptr %slen, align 4
  store i32 %7, ptr %maxLen, align 4
  br label %if.end

if.end:                                           ; preds = %if.then2, %if.then
  store i32 1, ptr %i, align 4
  br label %for.cond

for.cond:                                         ; preds = %for.inc, %if.end
  %8 = load i32, ptr %i, align 4
  %9 = load i32, ptr %maxLen, align 4
  %cmp3 = icmp slt i32 %8, %9
  br i1 %cmp3, label %for.body, label %for.end

for.body:                                         ; preds = %for.cond
  %10 = load ptr, ptr %text.addr, align 8
  %11 = load i32, ptr %start.addr, align 4
  %12 = load i32, ptr %i, align 4
  %add = add nsw i32 %11, %12
  %call4 = call noundef zeroext i16 @_ZNK6icu_7511Replaceable6charAtEi(ptr noundef nonnull align 8 dereferenceable(8) %10, i32 noundef %add)
  %conv = zext i16 %call4 to i32
  %13 = load ptr, ptr %s.addr, align 8
  %14 = load i32, ptr %i, align 4
  %call5 = call noundef zeroext i16 @_ZNK6icu_7513UnicodeString6charAtEi(ptr noundef nonnull align 8 dereferenceable(64) %13, i32 noundef %14)
  %conv6 = zext i16 %call5 to i32
  %cmp7 = icmp ne i32 %conv, %conv6
  br i1 %cmp7, label %if.then8, label %if.end9

if.then8:                                         ; preds = %for.body
  store i32 0, ptr %retval, align 4
  br label %return

if.end9:                                          ; preds = %for.body
  br label %for.inc

for.inc:                                          ; preds = %if.end9
  %15 = load i32, ptr %i, align 4
  %inc = add nsw i32 %15, 1
  store i32 %inc, ptr %i, align 4
  br label %for.cond, !llvm.loop !15

for.end:                                          ; preds = %for.cond
  br label %if.end29

if.else:                                          ; preds = %entry
  %16 = load i32, ptr %start.addr, align 4
  %17 = load i32, ptr %limit.addr, align 4
  %sub10 = sub nsw i32 %16, %17
  store i32 %sub10, ptr %maxLen, align 4
  %18 = load i32, ptr %maxLen, align 4
  %19 = load i32, ptr %slen, align 4
  %cmp11 = icmp sgt i32 %18, %19
  br i1 %cmp11, label %if.then12, label %if.end13

if.then12:                                        ; preds = %if.else
  %20 = load i32, ptr %slen, align 4
  store i32 %20, ptr %maxLen, align 4
  br label %if.end13

if.end13:                                         ; preds = %if.then12, %if.else
  %21 = load i32, ptr %slen, align 4
  %dec = add nsw i32 %21, -1
  store i32 %dec, ptr %slen, align 4
  store i32 1, ptr %i, align 4
  br label %for.cond14

for.cond14:                                       ; preds = %for.inc26, %if.end13
  %22 = load i32, ptr %i, align 4
  %23 = load i32, ptr %maxLen, align 4
  %cmp15 = icmp slt i32 %22, %23
  br i1 %cmp15, label %for.body16, label %for.end28

for.body16:                                       ; preds = %for.cond14
  %24 = load ptr, ptr %text.addr, align 8
  %25 = load i32, ptr %start.addr, align 4
  %26 = load i32, ptr %i, align 4
  %sub17 = sub nsw i32 %25, %26
  %call18 = call noundef zeroext i16 @_ZNK6icu_7511Replaceable6charAtEi(ptr noundef nonnull align 8 dereferenceable(8) %24, i32 noundef %sub17)
  %conv19 = zext i16 %call18 to i32
  %27 = load ptr, ptr %s.addr, align 8
  %28 = load i32, ptr %slen, align 4
  %29 = load i32, ptr %i, align 4
  %sub20 = sub nsw i32 %28, %29
  %call21 = call noundef zeroext i16 @_ZNK6icu_7513UnicodeString6charAtEi(ptr noundef nonnull align 8 dereferenceable(64) %27, i32 noundef %sub20)
  %conv22 = zext i16 %call21 to i32
  %cmp23 = icmp ne i32 %conv19, %conv22
  br i1 %cmp23, label %if.then24, label %if.end25

if.then24:                                        ; preds = %for.body16
  store i32 0, ptr %retval, align 4
  br label %return

if.end25:                                         ; preds = %for.body16
  br label %for.inc26

for.inc26:                                        ; preds = %if.end25
  %30 = load i32, ptr %i, align 4
  %inc27 = add nsw i32 %30, 1
  store i32 %inc27, ptr %i, align 4
  br label %for.cond14, !llvm.loop !16

for.end28:                                        ; preds = %for.cond14
  br label %if.end29

if.end29:                                         ; preds = %for.end28, %for.end
  %31 = load i32, ptr %maxLen, align 4
  store i32 %31, ptr %retval, align 4
  br label %return

return:                                           ; preds = %if.end29, %if.then24, %if.then8
  %32 = load i32, ptr %retval, align 4
  ret i32 %32
}