; Function Attrs: mustprogress uwtable
define noundef i32 @_ZN6icu_7510UnicodeSet9matchRestERKNS_11ReplaceableEiiRKNS_13UnicodeStringE(ptr noundef nonnull align 8 dereferenceable(8) %text, i32 noundef %start, i32 noundef %limit, ptr nocapture noundef nonnull readonly align 8 dereferenceable(64) %s) local_unnamed_addr #1 align 2 {
entry:
  %fUnion.i.i = getelementptr inbounds i8, ptr %s, i64 8
  %0 = load i16, ptr %fUnion.i.i, align 8
  %cmp.i.i = icmp slt i16 %0, 0
  %1 = ashr i16 %0, 5
  %shr.i.i = sext i16 %1 to i32
  %fLength.i = getelementptr inbounds i8, ptr %s, i64 12
  %2 = load i32, ptr %fLength.i, align 4
  %cond.i = select i1 %cmp.i.i, i32 %2, i32 %shr.i.i
  %cmp = icmp slt i32 %start, %limit
  br i1 %cmp, label %if.then, label %if.else

if.then:                                          ; preds = %entry
  %sub = sub nsw i32 %limit, %start
  %spec.select = tail call i32 @llvm.smin.i32(i32 %sub, i32 %cond.i)
  %cmp351 = icmp sgt i32 %spec.select, 1
  br i1 %cmp351, label %for.body.lr.ph, label %return

for.body.lr.ph:                                   ; preds = %if.then
  %fBuffer.i.i.i = getelementptr inbounds i8, ptr %s, i64 10
  %fArray.i.i.i = getelementptr inbounds i8, ptr %s, i64 24
  %wide.trip.count63 = zext nneg i32 %spec.select to i64
  br label %for.body

for.cond:                                         ; preds = %_ZNK6icu_7513UnicodeString6charAtEi.exit
  %indvars.iv.next60 = add nuw nsw i64 %indvars.iv59, 1
  %exitcond64.not = icmp eq i64 %indvars.iv.next60, %wide.trip.count63
  br i1 %exitcond64.not, label %return, label %for.body, !llvm.loop !16

for.body:                                         ; preds = %for.body.lr.ph, %for.cond
  %indvars.iv59 = phi i64 [ 1, %for.body.lr.ph ], [ %indvars.iv.next60, %for.cond ]
  %vtable.i = load ptr, ptr %text, align 8
  %vfn.i = getelementptr inbounds i8, ptr %vtable.i, i64 72
  %3 = load ptr, ptr %vfn.i, align 8
  %4 = trunc i64 %indvars.iv59 to i32
  %5 = add i32 %4, %start
  %call.i = tail call noundef zeroext i16 %3(ptr noundef nonnull align 8 dereferenceable(8) %text, i32 noundef %5)
  %6 = load i16, ptr %fUnion.i.i, align 8
  %cmp.i.i.i.i = icmp slt i16 %6, 0
  %7 = ashr i16 %6, 5
  %shr.i.i.i.i = sext i16 %7 to i32
  %8 = load i32, ptr %fLength.i, align 4
  %cond.i.i.i = select i1 %cmp.i.i.i.i, i32 %8, i32 %shr.i.i.i.i
  %9 = zext i32 %cond.i.i.i to i64
  %cmp.i.i27 = icmp ult i64 %indvars.iv59, %9
  br i1 %cmp.i.i27, label %if.then.i.i, label %_ZNK6icu_7513UnicodeString6charAtEi.exit

if.then.i.i:                                      ; preds = %for.body
  %10 = and i16 %6, 2
  %tobool.not.i.i.i = icmp eq i16 %10, 0
  %11 = load ptr, ptr %fArray.i.i.i, align 8
  %cond.i2.i.i = select i1 %tobool.not.i.i.i, ptr %11, ptr %fBuffer.i.i.i
  %arrayidx.i.i = getelementptr inbounds i16, ptr %cond.i2.i.i, i64 %indvars.iv59
  %12 = load i16, ptr %arrayidx.i.i, align 2
  br label %_ZNK6icu_7513UnicodeString6charAtEi.exit

_ZNK6icu_7513UnicodeString6charAtEi.exit:         ; preds = %for.body, %if.then.i.i
  %retval.0.i.i = phi i16 [ %12, %if.then.i.i ], [ -1, %for.body ]
  %cmp7.not = icmp eq i16 %call.i, %retval.0.i.i
  br i1 %cmp7.not, label %for.cond, label %return

if.else:                                          ; preds = %entry
  %sub10 = sub nsw i32 %start, %limit
  %spec.select26 = tail call i32 @llvm.smin.i32(i32 %sub10, i32 %cond.i)
  %cmp1548 = icmp sgt i32 %spec.select26, 1
  br i1 %cmp1548, label %for.body16.lr.ph, label %return

for.body16.lr.ph:                                 ; preds = %if.else
  %fBuffer.i.i.i40 = getelementptr inbounds i8, ptr %s, i64 10
  %fArray.i.i.i41 = getelementptr inbounds i8, ptr %s, i64 24
  %wide.trip.count = zext nneg i32 %spec.select26 to i64
  br label %for.body16

for.cond14:                                       ; preds = %_ZNK6icu_7513UnicodeString6charAtEi.exit45
  %indvars.iv.next = add nuw nsw i64 %indvars.iv, 1
  %exitcond.not = icmp eq i64 %indvars.iv.next, %wide.trip.count
  br i1 %exitcond.not, label %return, label %for.body16, !llvm.loop !17

for.body16:                                       ; preds = %for.body16.lr.ph, %for.cond14
  %indvars.iv = phi i64 [ 1, %for.body16.lr.ph ], [ %indvars.iv.next, %for.cond14 ]
  %vtable.i28 = load ptr, ptr %text, align 8
  %vfn.i29 = getelementptr inbounds i8, ptr %vtable.i28, i64 72
  %13 = load ptr, ptr %vfn.i29, align 8
  %14 = trunc i64 %indvars.iv to i32
  %15 = sub i32 %start, %14
  %call.i30 = tail call noundef zeroext i16 %13(ptr noundef nonnull align 8 dereferenceable(8) %text, i32 noundef %15)
  %16 = trunc i64 %indvars.iv to i32
  %17 = xor i32 %16, -1
  %sub20 = add i32 %cond.i, %17
  %18 = load i16, ptr %fUnion.i.i, align 8
  %cmp.i.i.i.i32 = icmp slt i16 %18, 0
  %19 = ashr i16 %18, 5
  %shr.i.i.i.i33 = sext i16 %19 to i32
  %20 = load i32, ptr %fLength.i, align 4
  %cond.i.i.i35 = select i1 %cmp.i.i.i.i32, i32 %20, i32 %shr.i.i.i.i33
  %cmp.i.i36 = icmp ugt i32 %cond.i.i.i35, %sub20
  br i1 %cmp.i.i36, label %if.then.i.i38, label %_ZNK6icu_7513UnicodeString6charAtEi.exit45

if.then.i.i38:                                    ; preds = %for.body16
  %21 = and i16 %18, 2
  %tobool.not.i.i.i39 = icmp eq i16 %21, 0
  %22 = load ptr, ptr %fArray.i.i.i41, align 8
  %cond.i2.i.i42 = select i1 %tobool.not.i.i.i39, ptr %22, ptr %fBuffer.i.i.i40
  %idxprom.i.i43 = sext i32 %sub20 to i64
  %arrayidx.i.i44 = getelementptr inbounds i16, ptr %cond.i2.i.i42, i64 %idxprom.i.i43
  %23 = load i16, ptr %arrayidx.i.i44, align 2
  br label %_ZNK6icu_7513UnicodeString6charAtEi.exit45

_ZNK6icu_7513UnicodeString6charAtEi.exit45:       ; preds = %for.body16, %if.then.i.i38
  %retval.0.i.i37 = phi i16 [ %23, %if.then.i.i38 ], [ -1, %for.body16 ]
  %cmp23.not = icmp eq i16 %call.i30, %retval.0.i.i37
  br i1 %cmp23.not, label %for.cond14, label %return

return:                                           ; preds = %_ZNK6icu_7513UnicodeString6charAtEi.exit45, %for.cond14, %_ZNK6icu_7513UnicodeString6charAtEi.exit, %for.cond, %if.else, %if.then
  %retval.0 = phi i32 [ %spec.select, %if.then ], [ %spec.select26, %if.else ], [ 0, %_ZNK6icu_7513UnicodeString6charAtEi.exit ], [ %spec.select, %for.cond ], [ 0, %_ZNK6icu_7513UnicodeString6charAtEi.exit45 ], [ %spec.select26, %for.cond14 ]
  ret i32 %retval.0
}